; Function Attrs: mustprogress nofree norecurse nosync nounwind sspstrong willreturn memory(argmem: read) uwtable
define ptr @cJSON_GetStringValue(ptr noundef readonly %0) local_unnamed_addr #1 {
  %2 = icmp eq ptr %0, null
  br i1 %2, label %cJSON_IsString.exit.thread, label %cJSON_IsString.exit

cJSON_IsString.exit:                              ; preds = %1
  %3 = getelementptr inbounds nuw i8, ptr %0, i64 24
  %4 = load i32, ptr %3, align 8, !tbaa !11
  %5 = and i32 %4, 255
  %.not = icmp eq i32 %5, 16
  br i1 %.not, label %6, label %cJSON_IsString.exit.thread

6:                                                ; preds = %cJSON_IsString.exit
  %7 = getelementptr inbounds nuw i8, ptr %0, i64 32
  %8 = load ptr, ptr %7, align 8, !tbaa !16
  br label %cJSON_IsString.exit.thread

cJSON_IsString.exit.thread:                       ; preds = %1, %cJSON_IsString.exit, %6
  %.0 = phi ptr [ %8, %6 ], [ null, %cJSON_IsString.exit ], [ null, %1 ]
  ret ptr %.0
}